; Function Attrs: nounwind uwtable
define ptr @l_List_forIn_x27_loop___at_Lean_Server_Test_Runner_main___spec__32___lambda__5___boxed(ptr noundef %0, ptr noundef %1, ptr noundef %2, ptr noundef %3, ptr noundef %4, ptr noundef %5, ptr noundef %6, ptr noundef %7, ptr noundef %8, ptr noundef %9, ptr noundef %10, ptr noundef %11, ptr noundef %12, ptr noundef %13) local_unnamed_addr #1 {
  %15 = ptrtoint ptr %9 to i64
  %16 = and i64 %15, 1
  %.not = icmp eq i64 %16, 0
  br i1 %.not, label %17, label %lean_dec.exit19

17:                                               ; preds = %14
  %18 = load i32, ptr %9, align 4, !tbaa !8
  %19 = icmp sgt i32 %18, 1
  br i1 %19, label %20, label %22, !prof !11

20:                                               ; preds = %17
  %21 = add nsw i32 %18, -1
  store i32 %21, ptr %9, align 4, !tbaa !8
  br label %lean_dec.exit19

22:                                               ; preds = %17
  %.not.i = icmp eq i32 %18, 0
  br i1 %.not.i, label %lean_dec.exit19, label %23

23:                                               ; preds = %22
  tail call void @lean_dec_ref_cold(ptr noundef nonnull %9) #6
  br label %lean_dec.exit19

lean_dec.exit19:                                  ; preds = %23, %22, %20, %14
  %24 = tail call ptr @l_List_forIn_x27_loop___at_Lean_Server_Test_Runner_main___spec__32___lambda__5(ptr noundef %0, ptr noundef %1, ptr noundef %2, ptr noundef %3, ptr noundef %4, ptr noundef %5, ptr noundef %6, ptr noundef %7, ptr noundef %8, i8 zeroext poison, ptr noundef %10, ptr noundef %11, ptr noundef %12, ptr noundef %13)
  %25 = ptrtoint ptr %8 to i64
  %26 = and i64 %25, 1
  %.not24 = icmp eq i64 %26, 0
  br i1 %.not24, label %27, label %lean_dec.exit18

27:                                               ; preds = %lean_dec.exit19
  %28 = load i32, ptr %8, align 4, !tbaa !8
  %29 = icmp sgt i32 %28, 1
  br i1 %29, label %30, label %32, !prof !11

30:                                               ; preds = %27
  %31 = add nsw i32 %28, -1
  store i32 %31, ptr %8, align 4, !tbaa !8
  br label %lean_dec.exit18

32:                                               ; preds = %27
  %.not.i20 = icmp eq i32 %28, 0
  br i1 %.not.i20, label %lean_dec.exit18, label %33

33:                                               ; preds = %32
  tail call void @lean_dec_ref_cold(ptr noundef nonnull %8) #6
  br label %lean_dec.exit18

lean_dec.exit18:                                  ; preds = %33, %32, %30, %lean_dec.exit19
  %34 = ptrtoint ptr %1 to i64
  %35 = and i64 %34, 1
  %.not25 = icmp eq i64 %35, 0
  br i1 %.not25, label %36, label %lean_dec.exit

36:                                               ; preds = %lean_dec.exit18
  %37 = load i32, ptr %1, align 4, !tbaa !8
  %38 = icmp sgt i32 %37, 1
  br i1 %38, label %39, label %41, !prof !11

39:                                               ; preds = %36
  %40 = add nsw i32 %37, -1
  store i32 %40, ptr %1, align 4, !tbaa !8
  br label %lean_dec.exit

41:                                               ; preds = %36
  %.not.i22 = icmp eq i32 %37, 0
  br i1 %.not.i22, label %lean_dec.exit, label %42

42:                                               ; preds = %41
  tail call void @lean_dec_ref_cold(ptr noundef nonnull %1) #6
  br label %lean_dec.exit

lean_dec.exit:                                    ; preds = %42, %41, %39, %lean_dec.exit18
  ret ptr %24
}